	.file	"main.cpp"
	.text
.Ltext0:
	.section	.text._ZN1A1fEv,"axG",@progbits,_ZN1A1fEv,comdat
	.align 2
	.weak	_ZN1A1fEv
	.type	_ZN1A1fEv, @function
_ZN1A1fEv:
.LFB0:
	.file 1 "main.cpp"
	.loc 1 10 0
	.cfi_startproc
	.cfi_personality 0x3,__gxx_personality_v0
	pushq	%rbp
.LCFI0:
	.cfi_def_cfa_offset 16
	movq	%rsp, %rbp
	.cfi_offset 6, -16
.LCFI1:
	.cfi_def_cfa_register 6
	movq	%rdi, -8(%rbp)
	.loc 1 10 0
	movl	$15, %eax
	leave
	ret
	.cfi_endproc
.LFE0:
	.size	_ZN1A1fEv, .-_ZN1A1fEv
	.section	.text._ZN1B1fEv,"axG",@progbits,_ZN1B1fEv,comdat
	.align 2
	.weak	_ZN1B1fEv
	.type	_ZN1B1fEv, @function
_ZN1B1fEv:
.LFB1:
	.loc 1 15 0
	.cfi_startproc
	.cfi_personality 0x3,__gxx_personality_v0
	pushq	%rbp
.LCFI2:
	.cfi_def_cfa_offset 16
	movq	%rsp, %rbp
	.cfi_offset 6, -16
.LCFI3:
	.cfi_def_cfa_register 6
	movq	%rdi, -8(%rbp)
	.loc 1 15 0
	movl	$17, %eax
	leave
	ret
	.cfi_endproc
.LFE1:
	.size	_ZN1B1fEv, .-_ZN1B1fEv
	.section	.text._ZN1AC2Ev,"axG",@progbits,_ZN1AC2Ev,comdat
	.align 2
	.weak	_ZN1AC2Ev
	.type	_ZN1AC2Ev, @function
_ZN1AC2Ev:
.LFB5:
	.loc 1 8 0
	.cfi_startproc
	.cfi_personality 0x3,__gxx_personality_v0
	pushq	%rbp
.LCFI4:
	.cfi_def_cfa_offset 16
	movq	%rsp, %rbp
	.cfi_offset 6, -16
.LCFI5:
	.cfi_def_cfa_register 6
	movq	%rdi, -8(%rbp)
.LBB2:
	.loc 1 8 0
	movq	-8(%rbp), %rax
	movq	$_ZTV1A+16, (%rax)
.LBE2:
	leave
	ret
	.cfi_endproc
.LFE5:
	.size	_ZN1AC2Ev, .-_ZN1AC2Ev
	.section	.text._ZN1BC1Ev,"axG",@progbits,_ZN1BC1Ev,comdat
	.align 2
	.weak	_ZN1BC1Ev
	.type	_ZN1BC1Ev, @function
_ZN1BC1Ev:
.LFB8:
	.loc 1 13 0
	.cfi_startproc
	.cfi_personality 0x3,__gxx_personality_v0
	pushq	%rbp
.LCFI6:
	.cfi_def_cfa_offset 16
	movq	%rsp, %rbp
	.cfi_offset 6, -16
.LCFI7:
	.cfi_def_cfa_register 6
	subq	$16, %rsp
	movq	%rdi, -8(%rbp)
.LBB3:
	.loc 1 13 0
	movq	-8(%rbp), %rax
	movq	%rax, %rdi
	call	_ZN1AC2Ev
	movq	-8(%rbp), %rax
	movq	$_ZTV1B+16, (%rax)
.LBE3:
	leave
	ret
	.cfi_endproc
.LFE8:
	.size	_ZN1BC1Ev, .-_ZN1BC1Ev
	.text
.globl main
	.type	main, @function
main:
.LFB2:
	.loc 1 18 0
	.cfi_startproc
	.cfi_personality 0x3,__gxx_personality_v0
	pushq	%rbp
.LCFI8:
	.cfi_def_cfa_offset 16
	movq	%rsp, %rbp
	.cfi_offset 6, -16
.LCFI9:
	.cfi_def_cfa_register 6
	subq	$16, %rsp
.LBB4:
	.loc 1 19 0
	leaq	-16(%rbp), %rax
	movq	%rax, %rdi
	call	_ZN1BC1Ev
	.loc 1 20 0
	movl	$0, %eax
.LBE4:
	.loc 1 21 0
	leave
	ret
	.cfi_endproc
.LFE2:
	.size	main, .-main
	.weak	_ZTV1B
	.section	.rodata._ZTV1B,"aG",@progbits,_ZTV1B,comdat
	.align 16
	.type	_ZTV1B, @object
	.size	_ZTV1B, 24
_ZTV1B:
	.quad	0
	.quad	_ZTI1B
	.quad	_ZN1B1fEv
	.weak	_ZTV1A
	.section	.rodata._ZTV1A,"aG",@progbits,_ZTV1A,comdat
	.align 16
	.type	_ZTV1A, @object
	.size	_ZTV1A, 24
_ZTV1A:
	.quad	0
	.quad	_ZTI1A
	.quad	_ZN1A1fEv
	.weak	_ZTS1B
	.section	.rodata._ZTS1B,"aG",@progbits,_ZTS1B,comdat
	.type	_ZTS1B, @object
	.size	_ZTS1B, 3
_ZTS1B:
	.string	"1B"
	.weak	_ZTI1B
	.section	.rodata._ZTI1B,"aG",@progbits,_ZTI1B,comdat
	.align 16
	.type	_ZTI1B, @object
	.size	_ZTI1B, 24
_ZTI1B:
	.quad	_ZTVN10__cxxabiv120__si_class_type_infoE+16
	.quad	_ZTS1B
	.quad	_ZTI1A
	.weak	_ZTS1A
	.section	.rodata._ZTS1A,"aG",@progbits,_ZTS1A,comdat
	.type	_ZTS1A, @object
	.size	_ZTS1A, 3
_ZTS1A:
	.string	"1A"
	.weak	_ZTI1A
	.section	.rodata._ZTI1A,"aG",@progbits,_ZTI1A,comdat
	.align 16
	.type	_ZTI1A, @object
	.size	_ZTI1A, 16
_ZTI1A:
	.quad	_ZTVN10__cxxabiv117__class_type_infoE+16
	.quad	_ZTS1A
	.text
.Letext0:
	.section	.note.GNU-stack,"",@progbits
